target datalayout = "e-m:e-p270:32:32-p271:32:32-p272:64:64-i64:64-i128:128-f80:128-n8:16:32:64-S128"
target triple = "x86_64-pc-linux-gnu"

%class.dtPathCorridor = type { [3 x float], [3 x float], ptr, i32, i32 }

; Function Attrs: mustprogress nounwind uwtable
define linkonce_odr noundef i32 @_Z5dtMinIiET_S0_S0_(i32 noundef %0, i32 noundef %1) #1 comdat {
  %3 = alloca i32, align 4
  %4 = alloca i32, align 4
  store i32 %0, ptr %3, align 4
  store i32 %1, ptr %4, align 4
  %5 = load i32, ptr %3, align 4
  %6 = load i32, ptr %4, align 4
  %7 = icmp slt i32 %5, %6
  br i1 %7, label %8, label %10

8:                                                ; preds = %2
  %9 = load i32, ptr %3, align 4
  br label %12

10:                                               ; preds = %2
  %11 = load i32, ptr %4, align 4
  br label %12

12:                                               ; preds = %10, %8
  %13 = phi i32 [ %9, %8 ], [ %11, %10 ]
  ret i32 %13
}

; Function Attrs: mustprogress uwtable
define noundef zeroext i1 @_ZN14dtPathCorridor7isValidEiP14dtNavMeshQueryPK13dtQueryFilter(ptr noundef nonnull align 8 dereferenceable(40) %0, i32 noundef %1, ptr noundef %2, ptr noundef %3) #0 align 2 {
  %5 = alloca i1, align 1
  %6 = alloca ptr, align 8
  %7 = alloca i32, align 4
  %8 = alloca ptr, align 8
  %9 = alloca ptr, align 8
  %10 = alloca i32, align 4
  %11 = alloca i32, align 4
  store ptr %0, ptr %6, align 8
  store i32 %1, ptr %7, align 4
  store ptr %2, ptr %8, align 8
  store ptr %3, ptr %9, align 8
  %12 = load ptr, ptr %6, align 8
  %13 = getelementptr inbounds %class.dtPathCorridor, ptr %12, i32 0, i32 3
  %14 = load i32, ptr %13, align 8
  %15 = load i32, ptr %7, align 4
  %16 = call noundef i32 @_Z5dtMinIiET_S0_S0_(i32 noundef %14, i32 noundef %15)
  store i32 %16, ptr %10, align 4
  store i32 0, ptr %11, align 4
  br label %17

17:                                               ; preds = %33, %4
  %18 = load i32, ptr %11, align 4
  %19 = load i32, ptr %10, align 4
  %20 = icmp slt i32 %18, %19
  br i1 %20, label %21, label %36

21:                                               ; preds = %17
  %22 = load ptr, ptr %8, align 8
  %23 = getelementptr inbounds %class.dtPathCorridor, ptr %12, i32 0, i32 2
  %24 = load ptr, ptr %23, align 8
  %25 = load i32, ptr %11, align 4
  %26 = sext i32 %25 to i64
  %27 = getelementptr inbounds i32, ptr %24, i64 %26
  %28 = load i32, ptr %27, align 4
  %29 = load ptr, ptr %9, align 8
  %30 = call noundef zeroext i1 @_ZNK14dtNavMeshQuery14isValidPolyRefEjPK13dtQueryFilter(ptr noundef nonnull align 8 dereferenceable(104) %22, i32 noundef %28, ptr noundef %29)
  br i1 %30, label %32, label %31

31:                                               ; preds = %21
  store i1 false, ptr %5, align 1
  br label %37

32:                                               ; preds = %21
  br label %33

33:                                               ; preds = %32
  %34 = load i32, ptr %11, align 4
  %35 = add nsw i32 %34, 1
  store i32 %35, ptr %11, align 4
  br label %17, !llvm.loop !18

36:                                               ; preds = %17
  store i1 true, ptr %5, align 1
  br label %37

37:                                               ; preds = %36, %31
  %38 = load i1, ptr %5, align 1
  ret i1 %38
}