; Function Attrs: mustprogress uwtable
define noundef zeroext i1 @_ZN14dtPathCorridor7isValidEiP14dtNavMeshQueryPK13dtQueryFilter(ptr noundef nonnull readonly align 8 captures(none) dereferenceable(40) %0, i32 noundef %1, ptr noundef %2, ptr noundef %3) local_unnamed_addr #2 align 2 {
  %5 = getelementptr inbounds nuw i8, ptr %0, i64 32
  %6 = load i32, ptr %5, align 8
  %7 = tail call noundef i32 @llvm.smin.i32(i32 %6, i32 %1)
  %8 = icmp slt i32 %7, 1
  br i1 %8, label %._crit_edge, label %.lr.ph

.lr.ph:                                           ; preds = %4
  %9 = getelementptr inbounds nuw i8, ptr %0, i64 24
  %wide.trip.count = zext nneg i32 %7 to i64
  br label %10

10:                                               ; preds = %10, %.lr.ph
  %indvars.iv = phi i64 [ 0, %.lr.ph ], [ %indvars.iv.next, %10 ]
  %11 = load ptr, ptr %9, align 8
  %12 = getelementptr inbounds nuw i32, ptr %11, i64 %indvars.iv
  %13 = load i32, ptr %12, align 4
  %14 = tail call noundef zeroext i1 @_ZNK14dtNavMeshQuery14isValidPolyRefEjPK13dtQueryFilter(ptr noundef nonnull align 8 dereferenceable(104) %2, i32 noundef %13, ptr noundef %3)
  %indvars.iv.next = add nuw nsw i64 %indvars.iv, 1
  %exitcond.not = icmp ne i64 %indvars.iv.next, %wide.trip.count
  %or.cond.not = select i1 %14, i1 %exitcond.not, i1 false
  br i1 %or.cond.not, label %10, label %._crit_edge, !llvm.loop !17

._crit_edge:                                      ; preds = %10, %4
  %.lcssa = phi i1 [ true, %4 ], [ %14, %10 ]
  ret i1 %.lcssa
}